#include <math.h>
#include <stdio.h>
#include <stdlib.h>
#include <string.h>

void main()
{
 char *p;
 int i,j,k,n,m;
 p=(char *)malloc(100*sizeof(char));
 gets(p);
 n=strlen(p);
 for(i=0;i<n-2;i++)
    {
     printf("%c",*(p+i));
     if(*(p+i+2)==' '&&*(p+i+1)==' ')
       {
        while(*(p+i+2)==' ')
             {
              i++;
               }
       }
    }
    printf("%c%c",*(p+n-2),*(p+n-1));
}