; ModuleID = 'source-C-CXX/61/1455.c'
source_filename = "source-C-CXX/61/1455.c"
target datalayout = "e-m:e-p270:32:32-p271:32:32-p272:64:64-i64:64-f80:128-n8:16:32:64-S128"
target triple = "x86_64-pc-linux-gnu"

@.str.1 = private unnamed_addr constant [5 x i8] c"%c%c\00", align 1

; Function Attrs: nounwind sspstrong uwtable
define dso_local void @main() local_unnamed_addr #0 {
  %1 = tail call noalias align 16 dereferenceable_or_null(100) i8* @malloc(i64 100) #6
  %2 = tail call i32 (i8*, ...) bitcast (i32 (...)* @gets to i32 (i8*, ...)*)(i8* %1) #6
  %3 = tail call i64 @strlen(i8* noundef nonnull dereferenceable(1) %1) #7
  %4 = trunc i64 %3 to i32
  %5 = add nsw i32 %4, -2
  %6 = icmp sgt i32 %4, 2
  br i1 %6, label %7, label %34

7:                                                ; preds = %0, %30
  %8 = phi i32 [ %32, %30 ], [ 0, %0 ]
  %9 = sext i32 %8 to i64
  %10 = getelementptr inbounds i8, i8* %1, i64 %9
  %11 = load i8, i8* %10, align 1, !tbaa !5
  %12 = sext i8 %11 to i32
  %13 = tail call i32 @putchar(i32 %12)
  %14 = getelementptr inbounds i8, i8* %10, i64 2
  %15 = load i8, i8* %14, align 1, !tbaa !5
  %16 = icmp eq i8 %15, 32
  br i1 %16, label %17, label %30

17:                                               ; preds = %7
  %18 = getelementptr inbounds i8, i8* %10, i64 1
  %19 = load i8, i8* %18, align 1, !tbaa !5
  %20 = icmp eq i8 %19, 32
  br i1 %20, label %21, label %30

21:                                               ; preds = %17, %21
  %22 = phi i64 [ %27, %21 ], [ %9, %17 ]
  %23 = add nsw i64 %22, 2
  %24 = getelementptr inbounds i8, i8* %1, i64 %23
  %25 = load i8, i8* %24, align 1, !tbaa !5
  %26 = icmp eq i8 %25, 32
  %27 = add i64 %22, 1
  br i1 %26, label %21, label %28, !llvm.loop !8

28:                                               ; preds = %21
  %29 = trunc i64 %22 to i32
  br label %30

30:                                               ; preds = %28, %7, %17
  %31 = phi i32 [ %8, %17 ], [ %8, %7 ], [ %29, %28 ]
  %32 = add nsw i32 %31, 1
  %33 = icmp slt i32 %32, %5
  br i1 %33, label %7, label %34, !llvm.loop !10

34:                                               ; preds = %30, %0
  %35 = shl i64 %3, 32
  %36 = ashr exact i64 %35, 32
  %37 = getelementptr inbounds i8, i8* %1, i64 %36
  %38 = getelementptr inbounds i8, i8* %37, i64 -2
  %39 = load i8, i8* %38, align 1, !tbaa !5
  %40 = sext i8 %39 to i32
  %41 = getelementptr inbounds i8, i8* %37, i64 -1
  %42 = load i8, i8* %41, align 1, !tbaa !5
  %43 = sext i8 %42 to i32
  %44 = tail call i32 (i8*, ...) @printf(i8* nonnull dereferenceable(1) getelementptr inbounds ([5 x i8], [5 x i8]* @.str.1, i64 0, i64 0), i32 %40, i32 %43)
  ret void
}

; Function Attrs: inaccessiblememonly mustprogress nofree nounwind willreturn
declare noalias noundef align 16 i8* @malloc(i64 noundef) local_unnamed_addr #1

declare i32 @gets(...) local_unnamed_addr #2

; Function Attrs: argmemonly mustprogress nofree nounwind readonly willreturn
declare i64 @strlen(i8* nocapture) local_unnamed_addr #3

; Function Attrs: nofree nounwind
declare noundef i32 @printf(i8* nocapture noundef readonly, ...) local_unnamed_addr #4

; Function Attrs: nofree nounwind
declare noundef i32 @putchar(i32 noundef) local_unnamed_addr #5


!llvm.module.flags = !{!0, !1, !2, !3}
!llvm.ident = !{!4}

!0 = !{i32 1, !"wchar_size", i32 4}
!1 = !{i32 7, !"PIC Level", i32 2}
!2 = !{i32 7, !"PIE Level", i32 2}
!3 = !{i32 7, !"uwtable", i32 1}
!4 = !{!"clang version 13.0.0"}
!5 = !{!6, !6, i64 0}
!6 = !{!"omnipotent char", !7, i64 0}
!7 = !{!"Simple C/C++ TBAA"}
!8 = distinct !{!8, !9}
!9 = !{!"llvm.loop.mustprogress"}
!10 = distinct !{!10, !9}
